target datalayout = "e-m:e-p270:32:32-p271:32:32-p272:64:64-i64:64-i128:128-f80:128-n8:16:32:64-S128"
target triple = "x86_64-pc-linux-gnu"

%"class.icu_77::double_conversion::Vector" = type <{ ptr, i32, [4 x i8] }>

; Function Attrs: mustprogress nounwind uwtable
define linkonce_odr noundef ptr @_ZNK6icu_7717double_conversion6VectorIKcE5startEv(ptr noundef nonnull align 8 dereferenceable(12) %0) #3 comdat align 2 {
  %2 = alloca ptr, align 8
  store ptr %0, ptr %2, align 8, !tbaa !26
  %3 = load ptr, ptr %2, align 8
  %4 = getelementptr inbounds nuw %"class.icu_77::double_conversion::Vector", ptr %3, i32 0, i32 0
  %5 = load ptr, ptr %4, align 8, !tbaa !28
  ret ptr %5
}

; Function Attrs: mustprogress uwtable
define linkonce_odr { ptr, i32 } @_ZN6icu_7717double_conversion6VectorIKcE9SubVectorEii(ptr noundef nonnull align 8 dereferenceable(12) %0, i32 noundef %1, i32 noundef %2) #0 comdat align 2 {
  %4 = alloca %"class.icu_77::double_conversion::Vector", align 8
  %5 = alloca ptr, align 8
  %6 = alloca i32, align 4
  %7 = alloca i32, align 4
  store ptr %0, ptr %5, align 8, !tbaa !26
  store i32 %1, ptr %6, align 4, !tbaa !3
  store i32 %2, ptr %7, align 4, !tbaa !3
  %8 = load ptr, ptr %5, align 8
  %9 = call noundef ptr @_ZNK6icu_7717double_conversion6VectorIKcE5startEv(ptr noundef nonnull align 8 dereferenceable(12) %8)
  %10 = load i32, ptr %6, align 4, !tbaa !3
  %11 = sext i32 %10 to i64
  %12 = getelementptr inbounds i8, ptr %9, i64 %11
  %13 = load i32, ptr %7, align 4, !tbaa !3
  %14 = load i32, ptr %6, align 4, !tbaa !3
  %15 = sub nsw i32 %13, %14
  call void @_ZN6icu_7717double_conversion6VectorIKcEC2EPS2_i(ptr noundef nonnull align 8 dereferenceable(12) %4, ptr noundef %12, i32 noundef %15)
  %16 = load { ptr, i32 }, ptr %4, align 8
  ret { ptr, i32 } %16
}

; Function Attrs: mustprogress nounwind uwtable
define linkonce_odr noundef nonnull align 1 dereferenceable(1) ptr @_ZNK6icu_7717double_conversion6VectorIKcEixEi(ptr noundef nonnull align 8 dereferenceable(12) %0, i32 noundef %1) #3 comdat align 2 {
  %3 = alloca ptr, align 8
  %4 = alloca i32, align 4
  store ptr %0, ptr %3, align 8, !tbaa !26
  store i32 %1, ptr %4, align 4, !tbaa !3
  %5 = load ptr, ptr %3, align 8
  %6 = getelementptr inbounds nuw %"class.icu_77::double_conversion::Vector", ptr %5, i32 0, i32 0
  %7 = load ptr, ptr %6, align 8, !tbaa !28
  %8 = load i32, ptr %4, align 4, !tbaa !3
  %9 = sext i32 %8 to i64
  %10 = getelementptr inbounds i8, ptr %7, i64 %9
  ret ptr %10
}

; Function Attrs: mustprogress nounwind uwtable
define linkonce_odr void @_ZN6icu_7717double_conversion6VectorIKcEC2EPS2_i(ptr noundef nonnull align 8 dereferenceable(12) %0, ptr noundef %1, i32 noundef %2) unnamed_addr #3 comdat align 2 {
  %4 = alloca ptr, align 8
  %5 = alloca ptr, align 8
  %6 = alloca i32, align 4
  store ptr %0, ptr %4, align 8, !tbaa !26
  store ptr %1, ptr %5, align 8, !tbaa !8
  store i32 %2, ptr %6, align 4, !tbaa !3
  %7 = load ptr, ptr %4, align 8
  %8 = getelementptr inbounds nuw %"class.icu_77::double_conversion::Vector", ptr %7, i32 0, i32 0
  %9 = load ptr, ptr %5, align 8, !tbaa !8
  store ptr %9, ptr %8, align 8, !tbaa !28
  %10 = getelementptr inbounds nuw %"class.icu_77::double_conversion::Vector", ptr %7, i32 0, i32 1
  %11 = load i32, ptr %6, align 4, !tbaa !3
  store i32 %11, ptr %10, align 8, !tbaa !30
  ret void
}

; Function Attrs: mustprogress nounwind uwtable
define internal void @_ZN6icu_7717double_conversionL25CutToMaxSignificantDigitsENS0_6VectorIKcEEiPcPi(ptr %0, i32 %1, i32 noundef %2, ptr noundef %3, ptr noundef %4) #3 {
  %6 = alloca %"class.icu_77::double_conversion::Vector", align 8
  %7 = alloca i32, align 4
  %8 = alloca ptr, align 8
  %9 = alloca ptr, align 8
  %10 = alloca i32, align 4
  %11 = getelementptr inbounds nuw { ptr, i32 }, ptr %6, i32 0, i32 0
  store ptr %0, ptr %11, align 8
  %12 = getelementptr inbounds nuw { ptr, i32 }, ptr %6, i32 0, i32 1
  store i32 %1, ptr %12, align 8
  store i32 %2, ptr %7, align 4, !tbaa !3
  store ptr %3, ptr %8, align 8, !tbaa !8
  store ptr %4, ptr %9, align 8, !tbaa !31
  call void @llvm.lifetime.start.p0(i64 4, ptr %10) #7
  store i32 0, ptr %10, align 4, !tbaa !3
  br label %13

13:                                               ; preds = %25, %5
  %14 = load i32, ptr %10, align 4, !tbaa !3
  %15 = icmp slt i32 %14, 779
  br i1 %15, label %17, label %16

16:                                               ; preds = %13
  call void @llvm.lifetime.end.p0(i64 4, ptr %10) #7
  br label %28

17:                                               ; preds = %13
  %18 = load i32, ptr %10, align 4, !tbaa !3
  %19 = call noundef nonnull align 1 dereferenceable(1) ptr @_ZNK6icu_7717double_conversion6VectorIKcEixEi(ptr noundef nonnull align 8 dereferenceable(12) %6, i32 noundef %18)
  %20 = load i8, ptr %19, align 1, !tbaa !46
  %21 = load ptr, ptr %8, align 8, !tbaa !8
  %22 = load i32, ptr %10, align 4, !tbaa !3
  %23 = sext i32 %22 to i64
  %24 = getelementptr inbounds i8, ptr %21, i64 %23
  store i8 %20, ptr %24, align 1, !tbaa !46
  br label %25

25:                                               ; preds = %17
  %26 = load i32, ptr %10, align 4, !tbaa !3
  %27 = add nsw i32 %26, 1
  store i32 %27, ptr %10, align 4, !tbaa !3
  br label %13, !llvm.loop !61

28:                                               ; preds = %16
  %29 = load ptr, ptr %8, align 8, !tbaa !8
  %30 = getelementptr inbounds i8, ptr %29, i64 779
  store i8 49, ptr %30, align 1, !tbaa !46
  %31 = load i32, ptr %7, align 4, !tbaa !3
  %32 = call noundef i32 @_ZNK6icu_7717double_conversion6VectorIKcE6lengthEv(ptr noundef nonnull align 8 dereferenceable(12) %6)
  %33 = sub nsw i32 %32, 780
  %34 = add nsw i32 %31, %33
  %35 = load ptr, ptr %9, align 8, !tbaa !31
  store i32 %34, ptr %35, align 4, !tbaa !3
  ret void
}

; Function Attrs: mustprogress nounwind uwtable
define linkonce_odr noundef i32 @_ZNK6icu_7717double_conversion6VectorIKcE6lengthEv(ptr noundef nonnull align 8 dereferenceable(12) %0) #3 comdat align 2 {
  %2 = alloca ptr, align 8
  store ptr %0, ptr %2, align 8, !tbaa !26
  %3 = load ptr, ptr %2, align 8
  %4 = getelementptr inbounds nuw %"class.icu_77::double_conversion::Vector", ptr %3, i32 0, i32 1
  %5 = load i32, ptr %4, align 8, !tbaa !30
  ret i32 %5
}

; Function Attrs: inlinehint mustprogress uwtable
define linkonce_odr { ptr, i32 } @_ZN6icu_7717double_conversion17TrimTrailingZerosENS0_6VectorIKcEE(ptr %0, i32 %1) #6 comdat {
  %3 = alloca %"class.icu_77::double_conversion::Vector", align 8
  %4 = alloca %"class.icu_77::double_conversion::Vector", align 8
  %5 = alloca i32, align 4
  %6 = alloca i32, align 4
  %7 = alloca { ptr, i32 }, align 8
  %8 = getelementptr inbounds nuw { ptr, i32 }, ptr %4, i32 0, i32 0
  store ptr %0, ptr %8, align 8
  %9 = getelementptr inbounds nuw { ptr, i32 }, ptr %4, i32 0, i32 1
  store i32 %1, ptr %9, align 8
  call void @llvm.lifetime.start.p0(i64 4, ptr %5) #7
  %10 = call noundef i32 @_ZNK6icu_7717double_conversion6VectorIKcE6lengthEv(ptr noundef nonnull align 8 dereferenceable(12) %4)
  %11 = sub nsw i32 %10, 1
  store i32 %11, ptr %5, align 4, !tbaa !3
  br label %12

12:                                               ; preds = %27, %2
  %13 = load i32, ptr %5, align 4, !tbaa !3
  %14 = icmp sge i32 %13, 0
  br i1 %14, label %16, label %15

15:                                               ; preds = %12
  store i32 2, ptr %6, align 4
  br label %30

16:                                               ; preds = %12
  %17 = load i32, ptr %5, align 4, !tbaa !3
  %18 = call noundef nonnull align 1 dereferenceable(1) ptr @_ZNK6icu_7717double_conversion6VectorIKcEixEi(ptr noundef nonnull align 8 dereferenceable(12) %4, i32 noundef %17)
  %19 = load i8, ptr %18, align 1, !tbaa !46
  %20 = sext i8 %19 to i32
  %21 = icmp ne i32 %20, 48
  br i1 %21, label %22, label %26

22:                                               ; preds = %16
  %23 = load i32, ptr %5, align 4, !tbaa !3
  %24 = add nsw i32 %23, 1
  %25 = call { ptr, i32 } @_ZN6icu_7717double_conversion6VectorIKcE9SubVectorEii(ptr noundef nonnull align 8 dereferenceable(12) %4, i32 noundef 0, i32 noundef %24)
  store { ptr, i32 } %25, ptr %7, align 8
  call void @llvm.memcpy.p0.p0.i64(ptr align 8 %3, ptr align 8 %7, i64 12, i1 false)
  store i32 1, ptr %6, align 4
  br label %30

26:                                               ; preds = %16
  br label %27

27:                                               ; preds = %26
  %28 = load i32, ptr %5, align 4, !tbaa !3
  %29 = add nsw i32 %28, -1
  store i32 %29, ptr %5, align 4, !tbaa !3
  br label %12, !llvm.loop !60

30:                                               ; preds = %22, %15
  call void @llvm.lifetime.end.p0(i64 4, ptr %5) #7
  %31 = load i32, ptr %6, align 4
  switch i32 %31, label %36 [
    i32 2, label %32
    i32 1, label %34
  ]

32:                                               ; preds = %30
  %33 = call noundef ptr @_ZNK6icu_7717double_conversion6VectorIKcE5startEv(ptr noundef nonnull align 8 dereferenceable(12) %4)
  call void @_ZN6icu_7717double_conversion6VectorIKcEC2EPS2_i(ptr noundef nonnull align 8 dereferenceable(12) %3, ptr noundef %33, i32 noundef 0)
  br label %34

34:                                               ; preds = %32, %30
  %35 = load { ptr, i32 }, ptr %3, align 8
  ret { ptr, i32 } %35

36:                                               ; preds = %30
  unreachable
}

; Function Attrs: mustprogress uwtable
define internal { ptr, i32 } @_ZN6icu_7717double_conversionL16TrimLeadingZerosENS0_6VectorIKcEE(ptr %0, i32 %1) #0 {
  %3 = alloca %"class.icu_77::double_conversion::Vector", align 8
  %4 = alloca %"class.icu_77::double_conversion::Vector", align 8
  %5 = alloca i32, align 4
  %6 = alloca i32, align 4
  %7 = alloca { ptr, i32 }, align 8
  %8 = getelementptr inbounds nuw { ptr, i32 }, ptr %4, i32 0, i32 0
  store ptr %0, ptr %8, align 8
  %9 = getelementptr inbounds nuw { ptr, i32 }, ptr %4, i32 0, i32 1
  store i32 %1, ptr %9, align 8
  call void @llvm.lifetime.start.p0(i64 4, ptr %5) #7
  store i32 0, ptr %5, align 4, !tbaa !3
  br label %10

10:                                               ; preds = %26, %2
  %11 = load i32, ptr %5, align 4, !tbaa !3
  %12 = call noundef i32 @_ZNK6icu_7717double_conversion6VectorIKcE6lengthEv(ptr noundef nonnull align 8 dereferenceable(12) %4)
  %13 = icmp slt i32 %11, %12
  br i1 %13, label %15, label %14

14:                                               ; preds = %10
  store i32 2, ptr %6, align 4
  br label %29

15:                                               ; preds = %10
  %16 = load i32, ptr %5, align 4, !tbaa !3
  %17 = call noundef nonnull align 1 dereferenceable(1) ptr @_ZNK6icu_7717double_conversion6VectorIKcEixEi(ptr noundef nonnull align 8 dereferenceable(12) %4, i32 noundef %16)
  %18 = load i8, ptr %17, align 1, !tbaa !46
  %19 = sext i8 %18 to i32
  %20 = icmp ne i32 %19, 48
  br i1 %20, label %21, label %25

21:                                               ; preds = %15
  %22 = load i32, ptr %5, align 4, !tbaa !3
  %23 = call noundef i32 @_ZNK6icu_7717double_conversion6VectorIKcE6lengthEv(ptr noundef nonnull align 8 dereferenceable(12) %4)
  %24 = call { ptr, i32 } @_ZN6icu_7717double_conversion6VectorIKcE9SubVectorEii(ptr noundef nonnull align 8 dereferenceable(12) %4, i32 noundef %22, i32 noundef %23)
  store { ptr, i32 } %24, ptr %7, align 8
  call void @llvm.memcpy.p0.p0.i64(ptr align 8 %3, ptr align 8 %7, i64 12, i1 false)
  store i32 1, ptr %6, align 4
  br label %29

25:                                               ; preds = %15
  br label %26

26:                                               ; preds = %25
  %27 = load i32, ptr %5, align 4, !tbaa !3
  %28 = add nsw i32 %27, 1
  store i32 %28, ptr %5, align 4, !tbaa !3
  br label %10, !llvm.loop !59

29:                                               ; preds = %21, %14
  call void @llvm.lifetime.end.p0(i64 4, ptr %5) #7
  %30 = load i32, ptr %6, align 4
  switch i32 %30, label %35 [
    i32 2, label %31
    i32 1, label %33
  ]

31:                                               ; preds = %29
  %32 = call noundef ptr @_ZNK6icu_7717double_conversion6VectorIKcE5startEv(ptr noundef nonnull align 8 dereferenceable(12) %4)
  call void @_ZN6icu_7717double_conversion6VectorIKcEC2EPS2_i(ptr noundef nonnull align 8 dereferenceable(12) %3, ptr noundef %32, i32 noundef 0)
  br label %33

33:                                               ; preds = %31, %29
  %34 = load { ptr, i32 }, ptr %3, align 8
  ret { ptr, i32 } %34

35:                                               ; preds = %29
  unreachable
}

; Function Attrs: mustprogress uwtable
define internal void @_ZN6icu_7717double_conversionL10TrimAndCutENS0_6VectorIKcEEiPciPS3_Pi(ptr %0, i32 %1, i32 noundef %2, ptr noundef %3, i32 noundef %4, ptr noundef %5, ptr noundef %6) #0 {
  %8 = alloca %"class.icu_77::double_conversion::Vector", align 8
  %9 = alloca i32, align 4
  %10 = alloca ptr, align 8
  %11 = alloca i32, align 4
  %12 = alloca ptr, align 8
  %13 = alloca ptr, align 8
  %14 = alloca %"class.icu_77::double_conversion::Vector", align 8
  %15 = alloca %"class.icu_77::double_conversion::Vector", align 8
  %16 = alloca { ptr, i32 }, align 8
  %17 = alloca %"class.icu_77::double_conversion::Vector", align 8
  %18 = alloca %"class.icu_77::double_conversion::Vector", align 8
  %19 = alloca { ptr, i32 }, align 8
  %20 = alloca %"class.icu_77::double_conversion::Vector", align 8
  %21 = alloca %"class.icu_77::double_conversion::Vector", align 8
  %22 = getelementptr inbounds nuw { ptr, i32 }, ptr %8, i32 0, i32 0
  store ptr %0, ptr %22, align 8
  %23 = getelementptr inbounds nuw { ptr, i32 }, ptr %8, i32 0, i32 1
  store i32 %1, ptr %23, align 8
  store i32 %2, ptr %9, align 4, !tbaa !3
  store ptr %3, ptr %10, align 8, !tbaa !8
  store i32 %4, ptr %11, align 4, !tbaa !3
  store ptr %5, ptr %12, align 8, !tbaa !26
  store ptr %6, ptr %13, align 8, !tbaa !31
  call void @llvm.lifetime.start.p0(i64 16, ptr %14) #7
  call void @llvm.memcpy.p0.p0.i64(ptr align 8 %15, ptr align 8 %8, i64 16, i1 false), !tbaa.struct !7
  %24 = getelementptr inbounds nuw { ptr, i32 }, ptr %15, i32 0, i32 0
  %25 = load ptr, ptr %24, align 8
  %26 = getelementptr inbounds nuw { ptr, i32 }, ptr %15, i32 0, i32 1
  %27 = load i32, ptr %26, align 8
  %28 = call { ptr, i32 } @_ZN6icu_7717double_conversionL16TrimLeadingZerosENS0_6VectorIKcEE(ptr %25, i32 %27)
  store { ptr, i32 } %28, ptr %16, align 8
  call void @llvm.memcpy.p0.p0.i64(ptr align 8 %14, ptr align 8 %16, i64 12, i1 false)
  call void @llvm.lifetime.start.p0(i64 16, ptr %17) #7
  call void @llvm.memcpy.p0.p0.i64(ptr align 8 %18, ptr align 8 %14, i64 16, i1 false), !tbaa.struct !7
  %29 = getelementptr inbounds nuw { ptr, i32 }, ptr %18, i32 0, i32 0
  %30 = load ptr, ptr %29, align 8
  %31 = getelementptr inbounds nuw { ptr, i32 }, ptr %18, i32 0, i32 1
  %32 = load i32, ptr %31, align 8
  %33 = call { ptr, i32 } @_ZN6icu_7717double_conversion17TrimTrailingZerosENS0_6VectorIKcEE(ptr %30, i32 %32)
  store { ptr, i32 } %33, ptr %19, align 8
  call void @llvm.memcpy.p0.p0.i64(ptr align 8 %17, ptr align 8 %19, i64 12, i1 false)
  %34 = call noundef i32 @_ZNK6icu_7717double_conversion6VectorIKcE6lengthEv(ptr noundef nonnull align 8 dereferenceable(12) %14)
  %35 = call noundef i32 @_ZNK6icu_7717double_conversion6VectorIKcE6lengthEv(ptr noundef nonnull align 8 dereferenceable(12) %17)
  %36 = sub nsw i32 %34, %35
  %37 = load i32, ptr %9, align 4, !tbaa !3
  %38 = add nsw i32 %37, %36
  store i32 %38, ptr %9, align 4, !tbaa !3
  %39 = call noundef i32 @_ZNK6icu_7717double_conversion6VectorIKcE6lengthEv(ptr noundef nonnull align 8 dereferenceable(12) %17)
  %40 = icmp sgt i32 %39, 780
  br i1 %40, label %41, label %51

41:                                               ; preds = %7
  call void @llvm.memcpy.p0.p0.i64(ptr align 8 %20, ptr align 8 %17, i64 16, i1 false), !tbaa.struct !7
  %42 = load i32, ptr %9, align 4, !tbaa !3
  %43 = load ptr, ptr %10, align 8, !tbaa !8
  %44 = load ptr, ptr %13, align 8, !tbaa !31
  %45 = getelementptr inbounds nuw { ptr, i32 }, ptr %20, i32 0, i32 0
  %46 = load ptr, ptr %45, align 8
  %47 = getelementptr inbounds nuw { ptr, i32 }, ptr %20, i32 0, i32 1
  %48 = load i32, ptr %47, align 8
  call void @_ZN6icu_7717double_conversionL25CutToMaxSignificantDigitsENS0_6VectorIKcEEiPcPi(ptr %46, i32 %48, i32 noundef %42, ptr noundef %43, ptr noundef %44)
  call void @llvm.lifetime.start.p0(i64 16, ptr %21) #7
  %49 = load ptr, ptr %10, align 8, !tbaa !8
  call void @_ZN6icu_7717double_conversion6VectorIKcEC2EPS2_i(ptr noundef nonnull align 8 dereferenceable(12) %21, ptr noundef %49, i32 noundef 780)
  %50 = load ptr, ptr %12, align 8, !tbaa !26
  call void @llvm.memcpy.p0.p0.i64(ptr align 8 %50, ptr align 8 %21, i64 12, i1 false), !tbaa.struct !7
  call void @llvm.lifetime.end.p0(i64 16, ptr %21) #7
  br label %55

51:                                               ; preds = %7
  %52 = load ptr, ptr %12, align 8, !tbaa !26
  call void @llvm.memcpy.p0.p0.i64(ptr align 8 %52, ptr align 8 %17, i64 12, i1 false), !tbaa.struct !7
  %53 = load i32, ptr %9, align 4, !tbaa !3
  %54 = load ptr, ptr %13, align 8, !tbaa !31
  store i32 %53, ptr %54, align 4, !tbaa !3
  br label %55

55:                                               ; preds = %51, %41
  call void @llvm.lifetime.end.p0(i64 16, ptr %17) #7
  call void @llvm.lifetime.end.p0(i64 16, ptr %14) #7
  ret void
}

; Function Attrs: mustprogress nounwind uwtable
define linkonce_odr void @_ZN6icu_7717double_conversion6VectorIKcEC2Ev(ptr noundef nonnull align 8 dereferenceable(12) %0) unnamed_addr #3 comdat align 2 {
  %2 = alloca ptr, align 8
  store ptr %0, ptr %2, align 8, !tbaa !26
  %3 = load ptr, ptr %2, align 8
  %4 = getelementptr inbounds nuw %"class.icu_77::double_conversion::Vector", ptr %3, i32 0, i32 0
  store ptr null, ptr %4, align 8, !tbaa !28
  %5 = getelementptr inbounds nuw %"class.icu_77::double_conversion::Vector", ptr %3, i32 0, i32 1
  store i32 0, ptr %5, align 8, !tbaa !30
  ret void
}

; Function Attrs: mustprogress uwtable
define noundef float @_ZN6icu_7717double_conversion6StrtofENS0_6VectorIKcEEi(ptr %0, i32 %1, i32 noundef %2) #0 {
  %4 = alloca %"class.icu_77::double_conversion::Vector", align 8
  %5 = alloca i32, align 4
  %6 = alloca [780 x i8], align 16
  %7 = alloca %"class.icu_77::double_conversion::Vector", align 8
  %8 = alloca i32, align 4
  %9 = alloca %"class.icu_77::double_conversion::Vector", align 8
  %10 = alloca %"class.icu_77::double_conversion::Vector", align 8
  %11 = getelementptr inbounds nuw { ptr, i32 }, ptr %4, i32 0, i32 0
  store ptr %0, ptr %11, align 8
  %12 = getelementptr inbounds nuw { ptr, i32 }, ptr %4, i32 0, i32 1
  store i32 %1, ptr %12, align 8
  store i32 %2, ptr %5, align 4, !tbaa !3
  call void @llvm.lifetime.start.p0(i64 780, ptr %6) #7
  call void @llvm.lifetime.start.p0(i64 16, ptr %7) #7
  call void @_ZN6icu_7717double_conversion6VectorIKcEC2Ev(ptr noundef nonnull align 8 dereferenceable(12) %7)
  call void @llvm.lifetime.start.p0(i64 4, ptr %8) #7
  call void @llvm.memcpy.p0.p0.i64(ptr align 8 %9, ptr align 8 %4, i64 16, i1 false), !tbaa.struct !7
  %13 = load i32, ptr %5, align 4, !tbaa !3
  %14 = getelementptr inbounds [780 x i8], ptr %6, i64 0, i64 0
  %15 = getelementptr inbounds nuw { ptr, i32 }, ptr %9, i32 0, i32 0
  %16 = load ptr, ptr %15, align 8
  %17 = getelementptr inbounds nuw { ptr, i32 }, ptr %9, i32 0, i32 1
  %18 = load i32, ptr %17, align 8
  call void @_ZN6icu_7717double_conversionL10TrimAndCutENS0_6VectorIKcEEiPciPS3_Pi(ptr %16, i32 %18, i32 noundef %13, ptr noundef %14, i32 noundef 780, ptr noundef %7, ptr noundef %8)
  %19 = load i32, ptr %8, align 4, !tbaa !3
  store i32 %19, ptr %5, align 4, !tbaa !3
  call void @llvm.memcpy.p0.p0.i64(ptr align 8 %10, ptr align 8 %7, i64 16, i1 false), !tbaa.struct !7
  %20 = load i32, ptr %5, align 4, !tbaa !3
  %21 = getelementptr inbounds nuw { ptr, i32 }, ptr %10, i32 0, i32 0
  %22 = load ptr, ptr %21, align 8
  %23 = getelementptr inbounds nuw { ptr, i32 }, ptr %10, i32 0, i32 1
  %24 = load i32, ptr %23, align 8
  %25 = call noundef float @_ZN6icu_7717double_conversion13StrtofTrimmedENS0_6VectorIKcEEi(ptr %22, i32 %24, i32 noundef %20)
  call void @llvm.lifetime.end.p0(i64 4, ptr %8) #7
  call void @llvm.lifetime.end.p0(i64 16, ptr %7) #7
  call void @llvm.lifetime.end.p0(i64 780, ptr %6) #7
  ret float %25
}